; Function Attrs: mustprogress uwtable
define hidden noundef zeroext i1 @_ZN4cvc58internal6theory11quantifiers8SygusPbe17allowPartialModelEv(ptr noundef nonnull align 8 dereferenceable(216) %0) unnamed_addr #3 align 2 {
  %2 = tail call noundef nonnull align 8 dereferenceable(408) ptr @_ZNK4cvc58internal6EnvObj7optionsEv(ptr noundef nonnull align 8 dereferenceable(16) %0)
  %3 = getelementptr inbounds nuw i8, ptr %2, i64 344
  %4 = load ptr, ptr %3, align 8, !tbaa !47
  %5 = getelementptr inbounds nuw i8, ptr %4, i64 539
  %6 = load i8, ptr %5, align 1, !tbaa !343, !range !270, !noundef !271
  %7 = trunc nuw i8 %6 to i1
  %8 = xor i1 %7, true
  ret i1 %8
}